MPLINK 5.08, LINKER
Linker Map File - Created Sun Apr 01 20:29:08 2018

                                 Section Info
                  Section       Type    Address   Location Size(Bytes)
                ---------  ---------  ---------  ---------  ---------
                   .org_0       code   0x000000    program   0x000242
                   .cinit    romdata   0x000121    program   0x000004



                              Program Memory Usage 
                               Start         End      
                           ---------   ---------      
                            0x000000    0x000122      
            291 out of 4230 program addresses used, program memory utilization is 6%



                              Symbols - Sorted by Name
                     Name    Address   Location    Storage File                     
                ---------  ---------  ---------  --------- ---------                
             Compare_Code   0x00002f    program     static C:\Users\Ghost\Desktop\Project\codes\Password_Check.X\check1.asm
    Compared_CorrectPword   0x000046    program     static C:\Users\Ghost\Desktop\Project\codes\Password_Check.X\check1.asm
  Compared_IncorrectPword   0x000040    program     static C:\Users\Ghost\Desktop\Project\codes\Password_Check.X\check1.asm
                    Delay   0x000119    program     static C:\Users\Ghost\Desktop\Project\codes\Password_Check.X\check1.asm
                   Delay2   0x00011e    program     static C:\Users\Ghost\Desktop\Project\codes\Password_Check.X\check1.asm
                   Delay5   0x000116    program     static C:\Users\Ghost\Desktop\Project\codes\Password_Check.X\check1.asm
                Get_Pword   0x00000d    program     static C:\Users\Ghost\Desktop\Project\codes\Password_Check.X\check1.asm
                Key_Check   0x0000e6    program     static C:\Users\Ghost\Desktop\Project\codes\Password_Check.X\check1.asm
                 Key_Init   0x0000e0    program     static C:\Users\Ghost\Desktop\Project\codes\Password_Check.X\check1.asm
                LCD_Enter   0x000087    program     static C:\Users\Ghost\Desktop\Project\codes\Password_Check.X\check1.asm
                 LCD_Init   0x000049    program     static C:\Users\Ghost\Desktop\Project\codes\Password_Check.X\check1.asm
                  LCD_Ins   0x000069    program     static C:\Users\Ghost\Desktop\Project\codes\Password_Check.X\check1.asm
                 LCD_char   0x000075    program     static C:\Users\Ghost\Desktop\Project\codes\Password_Check.X\check1.asm
                LCD_clear   0x00008c    program     static C:\Users\Ghost\Desktop\Project\codes\Password_Check.X\check1.asm
                     Main   0x000001    program     static C:\Users\Ghost\Desktop\Project\codes\Password_Check.X\check1.asm
                     Msg1   0x000093    program     static C:\Users\Ghost\Desktop\Project\codes\Password_Check.X\check1.asm
                     Msg2   0x0000b0    program     static C:\Users\Ghost\Desktop\Project\codes\Password_Check.X\check1.asm
                     Msg3   0x0000d1    program     static C:\Users\Ghost\Desktop\Project\codes\Password_Check.X\check1.asm
           Password_Check   0x000009    program     static C:\Users\Ghost\Desktop\Project\codes\Password_Check.X\check1.asm
                  Pulse_e   0x000082    program     static C:\Users\Ghost\Desktop\Project\codes\Password_Check.X\check1.asm
            Show_UserCode   0x000026    program     static C:\Users\Ghost\Desktop\Project\codes\Password_Check.X\check1.asm
           Store_UserCode   0x00001b    program     static C:\Users\Ghost\Desktop\Project\codes\Password_Check.X\check1.asm
                       l1   0x000008    program     static C:\Users\Ghost\Desktop\Project\codes\Password_Check.X\check1.asm
            loopinCompare   0x000031    program     static C:\Users\Ghost\Desktop\Project\codes\Password_Check.X\check1.asm
               loopinshow   0x000028    program     static C:\Users\Ghost\Desktop\Project\codes\Password_Check.X\check1.asm
              loopinstore   0x00001d    program     static C:\Users\Ghost\Desktop\Project\codes\Password_Check.X\check1.asm



                              Symbols - Sorted by Address
                     Name    Address   Location    Storage File                     
                ---------  ---------  ---------  --------- ---------                
                     Main   0x000001    program     static C:\Users\Ghost\Desktop\Project\codes\Password_Check.X\check1.asm
                       l1   0x000008    program     static C:\Users\Ghost\Desktop\Project\codes\Password_Check.X\check1.asm
           Password_Check   0x000009    program     static C:\Users\Ghost\Desktop\Project\codes\Password_Check.X\check1.asm
                Get_Pword   0x00000d    program     static C:\Users\Ghost\Desktop\Project\codes\Password_Check.X\check1.asm
           Store_UserCode   0x00001b    program     static C:\Users\Ghost\Desktop\Project\codes\Password_Check.X\check1.asm
              loopinstore   0x00001d    program     static C:\Users\Ghost\Desktop\Project\codes\Password_Check.X\check1.asm
            Show_UserCode   0x000026    program     static C:\Users\Ghost\Desktop\Project\codes\Password_Check.X\check1.asm
               loopinshow   0x000028    program     static C:\Users\Ghost\Desktop\Project\codes\Password_Check.X\check1.asm
             Compare_Code   0x00002f    program     static C:\Users\Ghost\Desktop\Project\codes\Password_Check.X\check1.asm
            loopinCompare   0x000031    program     static C:\Users\Ghost\Desktop\Project\codes\Password_Check.X\check1.asm
  Compared_IncorrectPword   0x000040    program     static C:\Users\Ghost\Desktop\Project\codes\Password_Check.X\check1.asm
    Compared_CorrectPword   0x000046    program     static C:\Users\Ghost\Desktop\Project\codes\Password_Check.X\check1.asm
                 LCD_Init   0x000049    program     static C:\Users\Ghost\Desktop\Project\codes\Password_Check.X\check1.asm
                  LCD_Ins   0x000069    program     static C:\Users\Ghost\Desktop\Project\codes\Password_Check.X\check1.asm
                 LCD_char   0x000075    program     static C:\Users\Ghost\Desktop\Project\codes\Password_Check.X\check1.asm
                  Pulse_e   0x000082    program     static C:\Users\Ghost\Desktop\Project\codes\Password_Check.X\check1.asm
                LCD_Enter   0x000087    program     static C:\Users\Ghost\Desktop\Project\codes\Password_Check.X\check1.asm
                LCD_clear   0x00008c    program     static C:\Users\Ghost\Desktop\Project\codes\Password_Check.X\check1.asm
                     Msg1   0x000093    program     static C:\Users\Ghost\Desktop\Project\codes\Password_Check.X\check1.asm
                     Msg2   0x0000b0    program     static C:\Users\Ghost\Desktop\Project\codes\Password_Check.X\check1.asm
                     Msg3   0x0000d1    program     static C:\Users\Ghost\Desktop\Project\codes\Password_Check.X\check1.asm
                 Key_Init   0x0000e0    program     static C:\Users\Ghost\Desktop\Project\codes\Password_Check.X\check1.asm
                Key_Check   0x0000e6    program     static C:\Users\Ghost\Desktop\Project\codes\Password_Check.X\check1.asm
                   Delay5   0x000116    program     static C:\Users\Ghost\Desktop\Project\codes\Password_Check.X\check1.asm
                    Delay   0x000119    program     static C:\Users\Ghost\Desktop\Project\codes\Password_Check.X\check1.asm
                   Delay2   0x00011e    program     static C:\Users\Ghost\Desktop\Project\codes\Password_Check.X\check1.asm


